target datalayout = "e-m:e-p270:32:32-p271:32:32-p272:64:64-i64:64-i128:128-f80:128-n8:16:32:64-S128"
target triple = "x86_64-pc-linux-gnu"

; Function Attrs: nounwind uwtable
define internal void @ExtractGreen_C(ptr noalias noundef %0, ptr noalias noundef %1, i32 noundef %2) #0 {
  %4 = alloca ptr, align 8
  %5 = alloca ptr, align 8
  %6 = alloca i32, align 4
  %7 = alloca i32, align 4
  store ptr %0, ptr %4, align 8, !tbaa !3
  store ptr %1, ptr %5, align 8, !tbaa !13
  store i32 %2, ptr %6, align 4, !tbaa !8
  call void @llvm.lifetime.start.p0(i64 4, ptr %7) #5
  store i32 0, ptr %7, align 4, !tbaa !8
  br label %8

8:                                                ; preds = %24, %3
  %9 = load i32, ptr %7, align 4, !tbaa !8
  %10 = load i32, ptr %6, align 4, !tbaa !8
  %11 = icmp slt i32 %9, %10
  br i1 %11, label %12, label %27

12:                                               ; preds = %8
  %13 = load ptr, ptr %4, align 8, !tbaa !3
  %14 = load i32, ptr %7, align 4, !tbaa !8
  %15 = sext i32 %14 to i64
  %16 = getelementptr inbounds i32, ptr %13, i64 %15
  %17 = load i32, ptr %16, align 4, !tbaa !8
  %18 = lshr i32 %17, 8
  %19 = trunc i32 %18 to i8
  %20 = load ptr, ptr %5, align 8, !tbaa !13
  %21 = load i32, ptr %7, align 4, !tbaa !8
  %22 = sext i32 %21 to i64
  %23 = getelementptr inbounds i8, ptr %20, i64 %22
  store i8 %19, ptr %23, align 1, !tbaa !12
  br label %24

24:                                               ; preds = %12
  %25 = load i32, ptr %7, align 4, !tbaa !8
  %26 = add nsw i32 %25, 1
  store i32 %26, ptr %7, align 4, !tbaa !8
  br label %8, !llvm.loop !28

27:                                               ; preds = %8
  call void @llvm.lifetime.end.p0(i64 4, ptr %7) #5
  ret void
}